; Function Attrs: nounwind uwtable
define void @glfwSetWindowMonitor(ptr noundef %0, ptr noundef %1, i32 noundef %2, i32 noundef %3, i32 noundef %4, i32 noundef %5, i32 noundef %6) local_unnamed_addr #0 {
  %8 = load i32, ptr @_glfw, align 8, !tbaa !138
  %.not = icmp eq i32 %8, 0
  br i1 %.not, label %9, label %10

9:                                                ; preds = %7
  tail call void (i32, ptr, ...) @_glfwInputError(i32 noundef 65537, ptr noundef null) #7
  br label %21

10:                                               ; preds = %7
  %11 = icmp slt i32 %4, 1
  %12 = icmp slt i32 %5, 1
  %or.cond = or i1 %11, %12
  br i1 %or.cond, label %13, label %14

13:                                               ; preds = %10
  tail call void (i32, ptr, ...) @_glfwInputError(i32 noundef 65540, ptr noundef nonnull @.str, i32 noundef %4, i32 noundef %5) #7
  br label %21

14:                                               ; preds = %10
  %or.cond3 = icmp slt i32 %6, -1
  br i1 %or.cond3, label %15, label %16

15:                                               ; preds = %14
  tail call void (i32, ptr, ...) @_glfwInputError(i32 noundef 65540, ptr noundef nonnull @.str.10, i32 noundef %6) #7
  br label %21

16:                                               ; preds = %14
  %17 = getelementptr inbounds nuw i8, ptr %0, i64 52
  store i32 %4, ptr %17, align 4, !tbaa !152
  %18 = getelementptr inbounds nuw i8, ptr %0, i64 56
  store i32 %5, ptr %18, align 4, !tbaa !153
  %19 = getelementptr inbounds nuw i8, ptr %0, i64 72
  store i32 %6, ptr %19, align 4, !tbaa !161
  %20 = load ptr, ptr getelementptr inbounds nuw (i8, ptr @_glfw, i64 432), align 8, !tbaa !274
  tail call void %20(ptr noundef %0, ptr noundef %1, i32 noundef %2, i32 noundef %3, i32 noundef %4, i32 noundef %5, i32 noundef %6) #7
  br label %21

21:                                               ; preds = %16, %15, %13, %9
  ret void
}